; Function Attrs: cold nounwind optsize uwtable
define internal void @uninit(ptr noundef readonly captures(none) %0) #0 {
  %2 = getelementptr inbounds nuw i8, ptr %0, i64 72
  %3 = load ptr, ptr %2, align 8, !tbaa !4
  %4 = getelementptr inbounds nuw i8, ptr %3, i64 120
  %5 = load i32, ptr %4, align 8, !tbaa !23
  %6 = icmp eq i32 %5, 1
  br i1 %6, label %7, label %9

7:                                                ; preds = %1
  %8 = getelementptr inbounds nuw i8, ptr %3, i64 8
  tail call void @ff_framesync_uninit(ptr noundef nonnull %8) #9
  br label %9

9:                                                ; preds = %7, %1
  %10 = getelementptr inbounds nuw i8, ptr %3, i64 176
  tail call void @av_freep(ptr noundef nonnull %10) #9
  %11 = getelementptr inbounds nuw i8, ptr %3, i64 184
  tail call void @av_freep(ptr noundef nonnull %11) #9
  %12 = getelementptr inbounds nuw i8, ptr %3, i64 192
  tail call void @av_freep(ptr noundef nonnull %12) #9
  %13 = getelementptr inbounds nuw i8, ptr %3, i64 200
  tail call void @av_freep(ptr noundef nonnull %13) #9
  %14 = getelementptr inbounds nuw i8, ptr %3, i64 208
  tail call void @av_freep(ptr noundef nonnull %14) #9
  %15 = getelementptr inbounds nuw i8, ptr %3, i64 216
  tail call void @av_freep(ptr noundef nonnull %15) #9
  %16 = getelementptr inbounds nuw i8, ptr %3, i64 224
  tail call void @av_freep(ptr noundef nonnull %16) #9
  %17 = getelementptr inbounds nuw i8, ptr %3, i64 232
  tail call void @av_freep(ptr noundef nonnull %17) #9
  %18 = getelementptr inbounds nuw i8, ptr %3, i64 240
  tail call void @av_freep(ptr noundef nonnull %18) #9
  %19 = getelementptr inbounds nuw i8, ptr %3, i64 248
  tail call void @av_freep(ptr noundef nonnull %19) #9
  %20 = getelementptr inbounds nuw i8, ptr %3, i64 256
  tail call void @av_freep(ptr noundef nonnull %20) #9
  %21 = getelementptr inbounds nuw i8, ptr %3, i64 264
  tail call void @av_freep(ptr noundef nonnull %21) #9
  ret void
}